; Function Attrs: mustprogress uwtable
define hidden void @_ZNK4cvc58internal6theory5arith6linear27RaiseEqualityEngineConflict15raiseEEConflictENS0_12NodeTemplateILb1EEESt10shared_ptrINS0_9ProofNodeEE(ptr noundef nonnull readonly align 8 captures(none) dereferenceable(8) %0, ptr noundef readonly captures(none) %1, ptr noundef readonly captures(none) %2) local_unnamed_addr #4 align 2 personality ptr @__gxx_personality_v0 {
  %4 = alloca %"class.cvc5::internal::NodeTemplate", align 8
  %5 = alloca %"class.std::shared_ptr", align 8
  %6 = load ptr, ptr %0, align 8, !tbaa !105
  %7 = load ptr, ptr %1, align 8, !tbaa !20
  store ptr %7, ptr %4, align 8, !tbaa !20
  %8 = load i64, ptr %7, align 8
  %9 = lshr i64 %8, 40
  %10 = trunc nuw nsw i64 %9 to i32
  %11 = and i32 %10, 1048575
  %12 = icmp samesign ult i32 %11, 1048574
  br i1 %12, label %13, label %18, !prof !22

13:                                               ; preds = %3
  %14 = add i64 %8, 1099511627776
  %15 = and i64 %14, 1152920405095219200
  %16 = and i64 %8, -1152920405095219201
  %17 = or disjoint i64 %15, %16
  store i64 %17, ptr %7, align 8
  br label %_ZN4cvc58internal12NodeTemplateILb1EEC2ERKS2_.exit

18:                                               ; preds = %3
  %19 = icmp eq i32 %11, 1048574
  br i1 %19, label %20, label %_ZN4cvc58internal12NodeTemplateILb1EEC2ERKS2_.exit, !prof !23

20:                                               ; preds = %18
  %21 = or i64 %8, 1152920405095219200
  store i64 %21, ptr %7, align 8
  tail call void @_ZN4cvc58internal4expr9NodeValue20markRefCountMaxedOutEv(ptr noundef nonnull align 8 dereferenceable(24) %7)
  br label %_ZN4cvc58internal12NodeTemplateILb1EEC2ERKS2_.exit

_ZN4cvc58internal12NodeTemplateILb1EEC2ERKS2_.exit: ; preds = %13, %18, %20
  %22 = load ptr, ptr %2, align 8, !tbaa !107
  store ptr %22, ptr %5, align 8, !tbaa !107
  %23 = getelementptr inbounds nuw i8, ptr %5, i64 8
  %24 = getelementptr inbounds nuw i8, ptr %2, i64 8
  %25 = load ptr, ptr %24, align 8, !tbaa !112
  store ptr %25, ptr %23, align 8, !tbaa !112
  %.not.i.i.i = icmp eq ptr %25, null
  br i1 %.not.i.i.i, label %_ZNSt10shared_ptrIN4cvc58internal9ProofNodeEEC2ERKS3_.exit, label %26

26:                                               ; preds = %_ZN4cvc58internal12NodeTemplateILb1EEC2ERKS2_.exit
  %27 = getelementptr inbounds nuw i8, ptr %25, i64 8
  %28 = load i8, ptr @__libc_single_threaded, align 1, !tbaa !49
  %.not.i.i.i.i = icmp eq i8 %28, 0
  br i1 %.not.i.i.i.i, label %32, label %29

29:                                               ; preds = %26
  %30 = load i32, ptr %27, align 4, !tbaa !63
  %31 = add nsw i32 %30, 1
  store i32 %31, ptr %27, align 4, !tbaa !63
  br label %_ZNSt10shared_ptrIN4cvc58internal9ProofNodeEEC2ERKS3_.exit

32:                                               ; preds = %26
  %33 = atomicrmw volatile add ptr %27, i32 1 acq_rel, align 4
  br label %_ZNSt10shared_ptrIN4cvc58internal9ProofNodeEEC2ERKS3_.exit

_ZNSt10shared_ptrIN4cvc58internal9ProofNodeEEC2ERKS3_.exit: ; preds = %_ZN4cvc58internal12NodeTemplateILb1EEC2ERKS2_.exit, %29, %32
  invoke void @_ZN4cvc58internal6theory5arith6linear18TheoryArithPrivate21raiseBlackBoxConflictENS0_12NodeTemplateILb1EEESt10shared_ptrINS0_9ProofNodeEE(ptr noundef nonnull align 8 dereferenceable(9440) %6, ptr noundef nonnull %4, ptr noundef nonnull %5)
          to label %34 unwind label %70

34:                                               ; preds = %_ZNSt10shared_ptrIN4cvc58internal9ProofNodeEEC2ERKS3_.exit
  %35 = load ptr, ptr %23, align 8, !tbaa !112
  %.not.i.i = icmp eq ptr %35, null
  br i1 %.not.i.i, label %_ZNSt12__shared_ptrIN4cvc58internal9ProofNodeELN9__gnu_cxx12_Lock_policyE2EED2Ev.exit, label %36

36:                                               ; preds = %34
  %37 = getelementptr inbounds nuw i8, ptr %35, i64 8
  %38 = load atomic i64, ptr %37 acquire, align 8
  %39 = icmp eq i64 %38, 4294967297
  %40 = trunc i64 %38 to i32
  br i1 %39, label %41, label %49

41:                                               ; preds = %36
  store i32 0, ptr %37, align 8, !tbaa !113
  %42 = getelementptr inbounds nuw i8, ptr %35, i64 12
  store i32 0, ptr %42, align 4, !tbaa !115
  %43 = load ptr, ptr %35, align 8, !tbaa !3
  %44 = getelementptr inbounds nuw i8, ptr %43, i64 16
  %45 = load ptr, ptr %44, align 8
  call void %45(ptr noundef nonnull align 8 dereferenceable(16) %35) #23
  %46 = load ptr, ptr %35, align 8, !tbaa !3
  %47 = getelementptr inbounds nuw i8, ptr %46, i64 24
  %48 = load ptr, ptr %47, align 8
  call void %48(ptr noundef nonnull align 8 dereferenceable(16) %35) #23
  br label %_ZNSt12__shared_ptrIN4cvc58internal9ProofNodeELN9__gnu_cxx12_Lock_policyE2EED2Ev.exit

49:                                               ; preds = %36
  %50 = load i8, ptr @__libc_single_threaded, align 1, !tbaa !49
  %.not.i.i.i2 = icmp eq i8 %50, 0
  br i1 %.not.i.i.i2, label %53, label %51

51:                                               ; preds = %49
  %52 = add nsw i32 %40, -1
  store i32 %52, ptr %37, align 4, !tbaa !63
  br label %_ZN9__gnu_cxx27__exchange_and_add_dispatchEPii.exit.i.i.i

53:                                               ; preds = %49
  %54 = atomicrmw volatile add ptr %37, i32 -1 acq_rel, align 4
  br label %_ZN9__gnu_cxx27__exchange_and_add_dispatchEPii.exit.i.i.i

_ZN9__gnu_cxx27__exchange_and_add_dispatchEPii.exit.i.i.i: ; preds = %53, %51
  %.0.i.i.i.i = phi i32 [ %40, %51 ], [ %54, %53 ]
  %55 = icmp eq i32 %.0.i.i.i.i, 1
  br i1 %55, label %56, label %_ZNSt12__shared_ptrIN4cvc58internal9ProofNodeELN9__gnu_cxx12_Lock_policyE2EED2Ev.exit, !prof !23

56:                                               ; preds = %_ZN9__gnu_cxx27__exchange_and_add_dispatchEPii.exit.i.i.i
  call void @_ZNSt16_Sp_counted_baseILN9__gnu_cxx12_Lock_policyE2EE24_M_release_last_use_coldEv(ptr noundef nonnull align 8 dereferenceable(16) %35) #23
  br label %_ZNSt12__shared_ptrIN4cvc58internal9ProofNodeELN9__gnu_cxx12_Lock_policyE2EED2Ev.exit

_ZNSt12__shared_ptrIN4cvc58internal9ProofNodeELN9__gnu_cxx12_Lock_policyE2EED2Ev.exit: ; preds = %34, %41, %_ZN9__gnu_cxx27__exchange_and_add_dispatchEPii.exit.i.i.i, %56
  %57 = load ptr, ptr %4, align 8, !tbaa !20
  %58 = load i64, ptr %57, align 8
  %59 = and i64 %58, 1152920405095219200
  %.not.i.i3 = icmp eq i64 %59, 1152920405095219200
  br i1 %.not.i.i3, label %_ZN4cvc58internal12NodeTemplateILb1EED2Ev.exit, label %60, !prof !23

60:                                               ; preds = %_ZNSt12__shared_ptrIN4cvc58internal9ProofNodeELN9__gnu_cxx12_Lock_policyE2EED2Ev.exit
  %61 = add i64 %58, 1152920405095219200
  %62 = and i64 %61, 1152920405095219200
  %63 = and i64 %58, -1152920405095219201
  %64 = or disjoint i64 %62, %63
  store i64 %64, ptr %57, align 8
  %65 = icmp eq i64 %62, 0
  br i1 %65, label %66, label %_ZN4cvc58internal12NodeTemplateILb1EED2Ev.exit, !prof !23

66:                                               ; preds = %60
  invoke void @_ZN4cvc58internal4expr9NodeValue15markForDeletionEv(ptr noundef nonnull align 8 dereferenceable(24) %57)
          to label %_ZN4cvc58internal12NodeTemplateILb1EED2Ev.exit unwind label %67

67:                                               ; preds = %66
  %68 = landingpad { ptr, i32 }
          catch ptr null
  %69 = extractvalue { ptr, i32 } %68, 0
  call void @__clang_call_terminate(ptr %69) #22
  unreachable

_ZN4cvc58internal12NodeTemplateILb1EED2Ev.exit:   ; preds = %_ZNSt12__shared_ptrIN4cvc58internal9ProofNodeELN9__gnu_cxx12_Lock_policyE2EED2Ev.exit, %60, %66
  ret void

70:                                               ; preds = %_ZNSt10shared_ptrIN4cvc58internal9ProofNodeEEC2ERKS3_.exit
  %71 = landingpad { ptr, i32 }
          cleanup
  call void @_ZNSt12__shared_ptrIN4cvc58internal9ProofNodeELN9__gnu_cxx12_Lock_policyE2EED2Ev(ptr noundef nonnull align 8 dereferenceable(16) %5) #23
  call void @_ZN4cvc58internal12NodeTemplateILb1EED2Ev(ptr noundef nonnull align 8 dereferenceable(8) %4) #23
  resume { ptr, i32 } %71
}